target datalayout = "e-m:e-p270:32:32-p271:32:32-p272:64:64-i64:64-i128:128-f80:128-n8:16:32:64-S128"
target triple = "x86_64-pc-linux-gnu"

@hf_nas_eps_tsc = internal global i32 0, align 4
@hf_nas_eps_emm_nas_key_set_id = internal global i32 0, align 4

; Function Attrs: null_pointer_is_valid sspstrong uwtable
define internal zeroext i16 @de_emm_nas_key_set_id(ptr noundef %0, ptr noundef %1, ptr noundef %2, i32 noundef %3, i32 noundef %4, ptr noundef %5, i32 noundef %6) #1 {
  %8 = alloca ptr, align 8
  %9 = alloca ptr, align 8
  %10 = alloca ptr, align 8
  %11 = alloca i32, align 4
  %12 = alloca i32, align 4
  %13 = alloca ptr, align 8
  %14 = alloca i32, align 4
  %15 = alloca i32, align 4
  %16 = alloca i32, align 4
  store ptr %0, ptr %8, align 8
  store ptr %1, ptr %9, align 8
  store ptr %2, ptr %10, align 8
  store i32 %3, ptr %11, align 4
  store i32 %4, ptr %12, align 4
  store ptr %5, ptr %13, align 8
  store i32 %6, ptr %14, align 4
  call void @llvm.lifetime.start.p0(i64 4, ptr %15) #10
  call void @llvm.lifetime.start.p0(i64 4, ptr %16) #10
  %17 = load i32, ptr %11, align 4
  store i32 %17, ptr %15, align 4
  %18 = load i32, ptr %15, align 4
  %19 = shl i32 %18, 3
  store i32 %19, ptr %16, align 4
  %20 = load i32, ptr %16, align 4
  %21 = add i32 %20, 4
  store i32 %21, ptr %16, align 4
  %22 = load ptr, ptr %9, align 8
  %23 = load i32, ptr @hf_nas_eps_tsc, align 4
  %24 = load ptr, ptr %8, align 8
  %25 = load i32, ptr %16, align 4
  %26 = call ptr @proto_tree_add_bits_item(ptr noundef %22, i32 noundef %23, ptr noundef %24, i32 noundef %25, i32 noundef 1, i32 noundef 0)
  %27 = load i32, ptr %16, align 4
  %28 = add i32 %27, 1
  store i32 %28, ptr %16, align 4
  %29 = load ptr, ptr %9, align 8
  %30 = load i32, ptr @hf_nas_eps_emm_nas_key_set_id, align 4
  %31 = load ptr, ptr %8, align 8
  %32 = load i32, ptr %16, align 4
  %33 = call ptr @proto_tree_add_bits_item(ptr noundef %29, i32 noundef %30, ptr noundef %31, i32 noundef %32, i32 noundef 3, i32 noundef 0)
  %34 = load i32, ptr %15, align 4
  %35 = add i32 %34, 1
  store i32 %35, ptr %15, align 4
  %36 = load i32, ptr %15, align 4
  %37 = load i32, ptr %11, align 4
  %38 = sub i32 %36, %37
  %39 = trunc i32 %38 to i16
  call void @llvm.lifetime.end.p0(i64 4, ptr %16) #10
  call void @llvm.lifetime.end.p0(i64 4, ptr %15) #10
  ret i16 %39
}